target datalayout = "e-m:e-p270:32:32-p271:32:32-p272:64:64-i64:64-i128:128-f80:128-n8:16:32:64-S128"
target triple = "x86_64-pc-linux-gnu"

%struct.xl_standby_lock = type { i32, i32, i32 }
%struct.xl_standby_locks = type { i32, [0 x %struct.xl_standby_lock] }

@MyXactFlags = external global i32, align 4

; Function Attrs: nounwind uwtable
define internal void @LogAccessExclusiveLocks(i32 noundef %0, ptr noundef %1) #0 {
  %3 = alloca i32, align 4
  %4 = alloca ptr, align 8
  %5 = alloca %struct.xl_standby_locks, align 4
  store i32 %0, ptr %3, align 4
  store ptr %1, ptr %4, align 8
  call void @llvm.lifetime.start.p0(i64 4, ptr %5) #8
  %6 = load i32, ptr %3, align 4
  %7 = getelementptr inbounds nuw %struct.xl_standby_locks, ptr %5, i32 0, i32 0
  store i32 %6, ptr %7, align 4
  call void @XLogBeginInsert()
  call void @XLogRegisterData(ptr noundef %5, i32 noundef 4)
  %8 = load ptr, ptr %4, align 8
  %9 = load i32, ptr %3, align 4
  %10 = sext i32 %9 to i64
  %11 = mul i64 %10, 12
  %12 = trunc i64 %11 to i32
  call void @XLogRegisterData(ptr noundef %8, i32 noundef %12)
  call void @XLogSetRecordFlags(i8 noundef zeroext 2)
  %13 = call i64 @XLogInsert(i8 noundef zeroext 8, i8 noundef zeroext 0)
  call void @llvm.lifetime.end.p0(i64 4, ptr %5) #8
  ret void
}

; Function Attrs: nounwind uwtable
define dso_local void @LogAccessExclusiveLock(i32 noundef %0, i32 noundef %1) #0 {
  %3 = alloca i32, align 4
  %4 = alloca i32, align 4
  %5 = alloca %struct.xl_standby_lock, align 4
  store i32 %0, ptr %3, align 4
  store i32 %1, ptr %4, align 4
  call void @llvm.lifetime.start.p0(i64 12, ptr %5) #8
  %6 = call i32 @GetCurrentTransactionId()
  %7 = getelementptr inbounds nuw %struct.xl_standby_lock, ptr %5, i32 0, i32 0
  store i32 %6, ptr %7, align 4
  %8 = load i32, ptr %3, align 4
  %9 = getelementptr inbounds nuw %struct.xl_standby_lock, ptr %5, i32 0, i32 1
  store i32 %8, ptr %9, align 4
  %10 = load i32, ptr %4, align 4
  %11 = getelementptr inbounds nuw %struct.xl_standby_lock, ptr %5, i32 0, i32 2
  store i32 %10, ptr %11, align 4
  call void @LogAccessExclusiveLocks(i32 noundef 1, ptr noundef %5)
  %12 = load i32, ptr @MyXactFlags, align 4
  %13 = or i32 %12, 2
  store i32 %13, ptr @MyXactFlags, align 4
  call void @llvm.lifetime.end.p0(i64 12, ptr %5) #8
  ret void
}