; Function Attrs: nounwind uwtable
define dso_local void @LogAccessExclusiveLock(i32 noundef %0, i32 noundef %1) local_unnamed_addr #0 {
  %3 = alloca %struct.xl_standby_locks, align 4
  %4 = alloca %struct.xl_standby_lock, align 4
  call void @llvm.lifetime.start.p0(i64 12, ptr nonnull %4) #7
  %5 = tail call i32 @GetCurrentTransactionId() #7
  store i32 %5, ptr %4, align 4
  %6 = getelementptr inbounds nuw i8, ptr %4, i64 4
  store i32 %0, ptr %6, align 4
  %7 = getelementptr inbounds nuw i8, ptr %4, i64 8
  store i32 %1, ptr %7, align 4
  call void @llvm.lifetime.start.p0(i64 4, ptr nonnull %3) #7
  store i32 1, ptr %3, align 4
  tail call void @XLogBeginInsert() #7
  call void @XLogRegisterData(ptr noundef nonnull %3, i32 noundef 4) #7
  call void @XLogRegisterData(ptr noundef nonnull %4, i32 noundef 12) #7
  call void @XLogSetRecordFlags(i8 noundef zeroext 2) #7
  %8 = call i64 @XLogInsert(i8 noundef zeroext 8, i8 noundef zeroext 0) #7
  call void @llvm.lifetime.end.p0(i64 4, ptr nonnull %3) #7
  %9 = load i32, ptr @MyXactFlags, align 4
  %10 = or i32 %9, 2
  store i32 %10, ptr @MyXactFlags, align 4
  call void @llvm.lifetime.end.p0(i64 12, ptr nonnull %4) #7
  ret void
}